target datalayout = "e-m:e-p270:32:32-p271:32:32-p272:64:64-i64:64-i128:128-f80:128-n8:16:32:64-S128"
target triple = "x86_64-pc-linux-gnu"

%struct._zval_struct = type { %union._zend_value, %union.anon, %union.anon.2 }
%union._zend_value = type { i64 }
%union.anon = type { i32 }
%union.anon.2 = type { i32 }
%struct._zend_refcounted_h = type { i32, %union.anon.3 }
%union.anon.3 = type { i32 }
%struct._zend_object_iterator_funcs = type { ptr, ptr, ptr, ptr, ptr, ptr, ptr, ptr }
%struct._zend_object = type { %struct._zend_refcounted_h, i32, ptr, ptr, ptr, [1 x %struct._zval_struct] }
%struct._zend_object_iterator = type { %struct._zend_object, %struct._zval_struct, ptr, i64 }
%struct._spl_dual_it_object = type { %struct.anon.8, %struct.anon.9, i32, %union.anon.10, %struct._zend_object }
%struct.anon.8 = type { %struct._zval_struct, ptr, ptr, ptr }
%struct.anon.9 = type { %struct._zval_struct, %struct._zval_struct, i64 }
%union.anon.10 = type { %struct.anon.12 }
%struct.anon.12 = type { i64, ptr, %struct._zval_struct, %struct._zval_struct }

; Function Attrs: nounwind uwtable
define internal void @spl_dual_it_free(ptr noundef %0) #0 {
  %2 = alloca ptr, align 8
  %3 = alloca i32, align 4
  %4 = alloca i32, align 4
  %5 = alloca ptr, align 8
  %6 = alloca ptr, align 8
  %7 = alloca ptr, align 8
  %8 = alloca ptr, align 8
  %9 = alloca ptr, align 8
  store ptr %0, ptr %9, align 8
  %10 = load ptr, ptr %9, align 8
  %11 = getelementptr inbounds %struct._spl_dual_it_object, ptr %10, i32 0, i32 0
  %12 = getelementptr inbounds %struct.anon.8, ptr %11, i32 0, i32 3
  %13 = load ptr, ptr %12, align 8
  %14 = icmp ne ptr %13, null
  br i1 %14, label %15, label %38

15:                                               ; preds = %1
  %16 = load ptr, ptr %9, align 8
  %17 = getelementptr inbounds %struct._spl_dual_it_object, ptr %16, i32 0, i32 0
  %18 = getelementptr inbounds %struct.anon.8, ptr %17, i32 0, i32 3
  %19 = load ptr, ptr %18, align 8
  %20 = getelementptr inbounds %struct._zend_object_iterator, ptr %19, i32 0, i32 2
  %21 = load ptr, ptr %20, align 8
  %22 = getelementptr inbounds %struct._zend_object_iterator_funcs, ptr %21, i32 0, i32 6
  %23 = load ptr, ptr %22, align 8
  %24 = icmp ne ptr %23, null
  br i1 %24, label %25, label %38

25:                                               ; preds = %15
  %26 = load ptr, ptr %9, align 8
  %27 = getelementptr inbounds %struct._spl_dual_it_object, ptr %26, i32 0, i32 0
  %28 = getelementptr inbounds %struct.anon.8, ptr %27, i32 0, i32 3
  %29 = load ptr, ptr %28, align 8
  %30 = getelementptr inbounds %struct._zend_object_iterator, ptr %29, i32 0, i32 2
  %31 = load ptr, ptr %30, align 8
  %32 = getelementptr inbounds %struct._zend_object_iterator_funcs, ptr %31, i32 0, i32 6
  %33 = load ptr, ptr %32, align 8
  %34 = load ptr, ptr %9, align 8
  %35 = getelementptr inbounds %struct._spl_dual_it_object, ptr %34, i32 0, i32 0
  %36 = getelementptr inbounds %struct.anon.8, ptr %35, i32 0, i32 3
  %37 = load ptr, ptr %36, align 8
  call void %33(ptr noundef %37)
  br label %38

38:                                               ; preds = %25, %15, %1
  %39 = load ptr, ptr %9, align 8
  %40 = getelementptr inbounds %struct._spl_dual_it_object, ptr %39, i32 0, i32 1
  %41 = getelementptr inbounds %struct.anon.9, ptr %40, i32 0, i32 0
  store ptr %41, ptr %6, align 8
  %42 = load ptr, ptr %6, align 8
  %43 = getelementptr inbounds %struct._zval_struct, ptr %42, i32 0, i32 1
  %44 = load i8, ptr %43, align 8
  %45 = zext i8 %44 to i32
  %46 = icmp ne i32 %45, 0
  br i1 %46, label %47, label %57

47:                                               ; preds = %38
  %48 = load ptr, ptr %9, align 8
  %49 = getelementptr inbounds %struct._spl_dual_it_object, ptr %48, i32 0, i32 1
  %50 = getelementptr inbounds %struct.anon.9, ptr %49, i32 0, i32 0
  call void @zval_ptr_dtor(ptr noundef %50)
  br label %51

51:                                               ; preds = %47
  %52 = load ptr, ptr %9, align 8
  %53 = getelementptr inbounds %struct._spl_dual_it_object, ptr %52, i32 0, i32 1
  %54 = getelementptr inbounds %struct.anon.9, ptr %53, i32 0, i32 0
  %55 = getelementptr inbounds %struct._zval_struct, ptr %54, i32 0, i32 1
  store i32 0, ptr %55, align 8
  br label %56

56:                                               ; preds = %51
  br label %57

57:                                               ; preds = %56, %38
  %58 = load ptr, ptr %9, align 8
  %59 = getelementptr inbounds %struct._spl_dual_it_object, ptr %58, i32 0, i32 1
  %60 = getelementptr inbounds %struct.anon.9, ptr %59, i32 0, i32 1
  store ptr %60, ptr %7, align 8
  %61 = load ptr, ptr %7, align 8
  %62 = getelementptr inbounds %struct._zval_struct, ptr %61, i32 0, i32 1
  %63 = load i8, ptr %62, align 8
  %64 = zext i8 %63 to i32
  %65 = icmp ne i32 %64, 0
  br i1 %65, label %66, label %76

66:                                               ; preds = %57
  %67 = load ptr, ptr %9, align 8
  %68 = getelementptr inbounds %struct._spl_dual_it_object, ptr %67, i32 0, i32 1
  %69 = getelementptr inbounds %struct.anon.9, ptr %68, i32 0, i32 1
  call void @zval_ptr_dtor(ptr noundef %69)
  br label %70

70:                                               ; preds = %66
  %71 = load ptr, ptr %9, align 8
  %72 = getelementptr inbounds %struct._spl_dual_it_object, ptr %71, i32 0, i32 1
  %73 = getelementptr inbounds %struct.anon.9, ptr %72, i32 0, i32 1
  %74 = getelementptr inbounds %struct._zval_struct, ptr %73, i32 0, i32 1
  store i32 0, ptr %74, align 8
  br label %75

75:                                               ; preds = %70
  br label %76

76:                                               ; preds = %75, %57
  %77 = load ptr, ptr %9, align 8
  %78 = getelementptr inbounds %struct._spl_dual_it_object, ptr %77, i32 0, i32 2
  %79 = load i32, ptr %78, align 8
  %80 = icmp eq i32 %79, 2
  br i1 %80, label %86, label %81

81:                                               ; preds = %76
  %82 = load ptr, ptr %9, align 8
  %83 = getelementptr inbounds %struct._spl_dual_it_object, ptr %82, i32 0, i32 2
  %84 = load i32, ptr %83, align 8
  %85 = icmp eq i32 %84, 3
  br i1 %85, label %86, label %151

86:                                               ; preds = %81, %76
  %87 = load ptr, ptr %9, align 8
  %88 = getelementptr inbounds %struct._spl_dual_it_object, ptr %87, i32 0, i32 3
  %89 = getelementptr inbounds %struct.anon.12, ptr %88, i32 0, i32 1
  %90 = load ptr, ptr %89, align 8
  %91 = icmp ne ptr %90, null
  br i1 %91, label %92, label %131

92:                                               ; preds = %86
  %93 = load ptr, ptr %9, align 8
  %94 = getelementptr inbounds %struct._spl_dual_it_object, ptr %93, i32 0, i32 3
  %95 = getelementptr inbounds %struct.anon.12, ptr %94, i32 0, i32 1
  %96 = load ptr, ptr %95, align 8
  store ptr %96, ptr %5, align 8
  %97 = load ptr, ptr %5, align 8
  %98 = getelementptr inbounds %struct._zend_refcounted_h, ptr %97, i32 0, i32 1
  %99 = load i32, ptr %98, align 4
  store i32 %99, ptr %3, align 4
  %100 = load i32, ptr %3, align 4
  %101 = and i32 %100, 1008
  %102 = and i32 %101, 64
  %103 = icmp ne i32 %102, 0
  br i1 %103, label %127, label %104

104:                                              ; preds = %92
  %105 = load ptr, ptr %5, align 8
  store ptr %105, ptr %2, align 8
  %106 = load ptr, ptr %2, align 8
  %107 = load i32, ptr %106, align 4
  %108 = icmp ugt i32 %107, 0
  call void @llvm.assume(i1 %108)
  %109 = load ptr, ptr %2, align 8
  %110 = load i32, ptr %109, align 4
  %111 = add i32 %110, -1
  store i32 %111, ptr %109, align 4
  %112 = icmp eq i32 %111, 0
  br i1 %112, label %113, label %126

113:                                              ; preds = %104
  %114 = load ptr, ptr %5, align 8
  %115 = getelementptr inbounds %struct._zend_refcounted_h, ptr %114, i32 0, i32 1
  %116 = load i32, ptr %115, align 4
  store i32 %116, ptr %4, align 4
  %117 = load i32, ptr %4, align 4
  %118 = and i32 %117, 1008
  %119 = and i32 %118, 128
  %120 = icmp ne i32 %119, 0
  br i1 %120, label %121, label %123

121:                                              ; preds = %113
  %122 = load ptr, ptr %5, align 8
  call void @free(ptr noundef %122) #10
  br label %125

123:                                              ; preds = %113
  %124 = load ptr, ptr %5, align 8
  call void @_efree(ptr noundef %124) #10
  br label %125

125:                                              ; preds = %123, %121
  br label %126

126:                                              ; preds = %125, %104
  br label %127

127:                                              ; preds = %126, %92
  %128 = load ptr, ptr %9, align 8
  %129 = getelementptr inbounds %struct._spl_dual_it_object, ptr %128, i32 0, i32 3
  %130 = getelementptr inbounds %struct.anon.12, ptr %129, i32 0, i32 1
  store ptr null, ptr %130, align 8
  br label %131

131:                                              ; preds = %127, %86
  %132 = load ptr, ptr %9, align 8
  %133 = getelementptr inbounds %struct._spl_dual_it_object, ptr %132, i32 0, i32 3
  %134 = getelementptr inbounds %struct.anon.12, ptr %133, i32 0, i32 2
  store ptr %134, ptr %8, align 8
  %135 = load ptr, ptr %8, align 8
  %136 = getelementptr inbounds %struct._zval_struct, ptr %135, i32 0, i32 1
  %137 = load i8, ptr %136, align 8
  %138 = zext i8 %137 to i32
  %139 = icmp ne i32 %138, 0
  br i1 %139, label %140, label %150

140:                                              ; preds = %131
  %141 = load ptr, ptr %9, align 8
  %142 = getelementptr inbounds %struct._spl_dual_it_object, ptr %141, i32 0, i32 3
  %143 = getelementptr inbounds %struct.anon.12, ptr %142, i32 0, i32 2
  call void @zval_ptr_dtor(ptr noundef %143)
  br label %144

144:                                              ; preds = %140
  %145 = load ptr, ptr %9, align 8
  %146 = getelementptr inbounds %struct._spl_dual_it_object, ptr %145, i32 0, i32 3
  %147 = getelementptr inbounds %struct.anon.12, ptr %146, i32 0, i32 2
  %148 = getelementptr inbounds %struct._zval_struct, ptr %147, i32 0, i32 1
  store i32 0, ptr %148, align 8
  br label %149

149:                                              ; preds = %144
  br label %150

150:                                              ; preds = %149, %131
  br label %151

151:                                              ; preds = %150, %81
  ret void
}