; Function Attrs: nounwind uwtable
define internal fastcc void @spl_dual_it_free(ptr noundef %0) unnamed_addr #0 {
  %2 = getelementptr inbounds i8, ptr %0, i64 32
  %3 = load ptr, ptr %2, align 8
  %.not = icmp eq ptr %3, null
  br i1 %.not, label %10, label %4

4:                                                ; preds = %1
  %5 = getelementptr inbounds i8, ptr %3, i64 72
  %6 = load ptr, ptr %5, align 8
  %7 = getelementptr inbounds i8, ptr %6, i64 48
  %8 = load ptr, ptr %7, align 8
  %.not32 = icmp eq ptr %8, null
  br i1 %.not32, label %10, label %9

9:                                                ; preds = %4
  tail call void %8(ptr noundef nonnull %3) #10
  br label %10

10:                                               ; preds = %9, %4, %1
  %11 = getelementptr inbounds i8, ptr %0, i64 48
  %12 = load i8, ptr %11, align 8
  %.not33 = icmp eq i8 %12, 0
  br i1 %.not33, label %15, label %13

13:                                               ; preds = %10
  %14 = getelementptr inbounds i8, ptr %0, i64 40
  tail call void @zval_ptr_dtor(ptr noundef nonnull %14) #10
  store i32 0, ptr %11, align 8
  br label %15

15:                                               ; preds = %13, %10
  %16 = getelementptr inbounds i8, ptr %0, i64 64
  %17 = load i8, ptr %16, align 8
  %.not34 = icmp eq i8 %17, 0
  br i1 %.not34, label %20, label %18

18:                                               ; preds = %15
  %19 = getelementptr inbounds i8, ptr %0, i64 56
  tail call void @zval_ptr_dtor(ptr noundef nonnull %19) #10
  store i32 0, ptr %16, align 8
  br label %20

20:                                               ; preds = %18, %15
  %21 = getelementptr inbounds i8, ptr %0, i64 80
  %22 = load i32, ptr %21, align 8
  %23 = and i32 %22, -2
  %switch = icmp eq i32 %23, 2
  br i1 %switch, label %24, label %46

24:                                               ; preds = %20
  %25 = getelementptr inbounds i8, ptr %0, i64 96
  %26 = load ptr, ptr %25, align 8
  %.not35 = icmp eq ptr %26, null
  br i1 %.not35, label %41, label %27

27:                                               ; preds = %24
  %28 = getelementptr inbounds i8, ptr %26, i64 4
  %29 = load i32, ptr %28, align 4
  %30 = and i32 %29, 64
  %.not36 = icmp eq i32 %30, 0
  br i1 %.not36, label %31, label %40

31:                                               ; preds = %27
  %32 = load i32, ptr %26, align 4
  %33 = icmp ne i32 %32, 0
  tail call void @llvm.assume(i1 %33)
  %34 = add i32 %32, -1
  store i32 %34, ptr %26, align 4
  %35 = icmp eq i32 %34, 0
  br i1 %35, label %36, label %40

36:                                               ; preds = %31
  %37 = and i32 %29, 128
  %.not37 = icmp eq i32 %37, 0
  br i1 %.not37, label %39, label %38

38:                                               ; preds = %36
  tail call void @free(ptr noundef nonnull %26) #10
  br label %40

39:                                               ; preds = %36
  tail call void @_efree(ptr noundef nonnull %26) #10
  br label %40

40:                                               ; preds = %31, %39, %38, %27
  store ptr null, ptr %25, align 8
  br label %41

41:                                               ; preds = %40, %24
  %42 = getelementptr inbounds i8, ptr %0, i64 112
  %43 = load i8, ptr %42, align 8
  %.not38 = icmp eq i8 %43, 0
  br i1 %.not38, label %46, label %44

44:                                               ; preds = %41
  %45 = getelementptr inbounds i8, ptr %0, i64 104
  tail call void @zval_ptr_dtor(ptr noundef nonnull %45) #10
  store i32 0, ptr %42, align 8
  br label %46

46:                                               ; preds = %20, %41, %44
  ret void
}